target datalayout = "e-m:e-p270:32:32-p271:32:32-p272:64:64-i64:64-i128:128-f80:128-n8:16:32:64-S128"
target triple = "x86_64-pc-linux-gnu"

%"class.llvm::StringRef" = type { ptr, i64 }
%"class.llvm::SMLoc" = type { ptr }
%"struct.llvm::AsmRewrite" = type <{ i32, [4 x i8], %"class.llvm::SMLoc", i32, i8, [3 x i8], i64, %"class.llvm::StringRef", %"struct.llvm::IntelExpr", i8, [7 x i8] }>
%"struct.llvm::IntelExpr" = type <{ i8, [7 x i8], i64, %"class.llvm::StringRef", %"class.llvm::StringRef", %"class.llvm::StringRef", i32, [4 x i8] }>

@_ZN4llvmL20AsmRewritePrecedenceE = internal constant [11 x i8] c"\02\02\02\03\03\03\05\01\05\02\02", align 1

; Function Attrs: mustprogress nounwind uwtable
define linkonce_odr hidden noundef ptr @_ZNK4llvm5SMLoc10getPointerEv(ptr noundef nonnull align 8 dereferenceable(8) %0) #0 comdat align 2 {
  %2 = alloca ptr, align 8
  store ptr %0, ptr %2, align 8
  %3 = load ptr, ptr %2, align 8
  %4 = getelementptr inbounds nuw %"class.llvm::SMLoc", ptr %3, i32 0, i32 0
  %5 = load ptr, ptr %4, align 8
  ret ptr %5
}

; Function Attrs: mustprogress nounwind uwtable
define internal noundef i32 @_ZL12rewritesSortPKN4llvm10AsmRewriteES2_(ptr noundef %0, ptr noundef %1) #0 {
  %3 = alloca i32, align 4
  %4 = alloca ptr, align 8
  %5 = alloca ptr, align 8
  store ptr %0, ptr %4, align 8
  store ptr %1, ptr %5, align 8
  %6 = load ptr, ptr %4, align 8
  %7 = getelementptr inbounds nuw %"struct.llvm::AsmRewrite", ptr %6, i32 0, i32 2
  %8 = call noundef ptr @_ZNK4llvm5SMLoc10getPointerEv(ptr noundef nonnull align 8 dereferenceable(8) %7)
  %9 = load ptr, ptr %5, align 8
  %10 = getelementptr inbounds nuw %"struct.llvm::AsmRewrite", ptr %9, i32 0, i32 2
  %11 = call noundef ptr @_ZNK4llvm5SMLoc10getPointerEv(ptr noundef nonnull align 8 dereferenceable(8) %10)
  %12 = icmp ult ptr %8, %11
  br i1 %12, label %13, label %14

13:                                               ; preds = %2
  store i32 -1, ptr %3, align 4
  br label %58

14:                                               ; preds = %2
  %15 = load ptr, ptr %5, align 8
  %16 = getelementptr inbounds nuw %"struct.llvm::AsmRewrite", ptr %15, i32 0, i32 2
  %17 = call noundef ptr @_ZNK4llvm5SMLoc10getPointerEv(ptr noundef nonnull align 8 dereferenceable(8) %16)
  %18 = load ptr, ptr %4, align 8
  %19 = getelementptr inbounds nuw %"struct.llvm::AsmRewrite", ptr %18, i32 0, i32 2
  %20 = call noundef ptr @_ZNK4llvm5SMLoc10getPointerEv(ptr noundef nonnull align 8 dereferenceable(8) %19)
  %21 = icmp ult ptr %17, %20
  br i1 %21, label %22, label %23

22:                                               ; preds = %14
  store i32 1, ptr %3, align 4
  br label %58

23:                                               ; preds = %14
  %24 = load ptr, ptr %4, align 8
  %25 = getelementptr inbounds nuw %"struct.llvm::AsmRewrite", ptr %24, i32 0, i32 0
  %26 = load i32, ptr %25, align 8
  %27 = zext i32 %26 to i64
  %28 = getelementptr inbounds [11 x i8], ptr @_ZN4llvmL20AsmRewritePrecedenceE, i64 0, i64 %27
  %29 = load i8, ptr %28, align 1
  %30 = sext i8 %29 to i32
  %31 = load ptr, ptr %5, align 8
  %32 = getelementptr inbounds nuw %"struct.llvm::AsmRewrite", ptr %31, i32 0, i32 0
  %33 = load i32, ptr %32, align 8
  %34 = zext i32 %33 to i64
  %35 = getelementptr inbounds [11 x i8], ptr @_ZN4llvmL20AsmRewritePrecedenceE, i64 0, i64 %34
  %36 = load i8, ptr %35, align 1
  %37 = sext i8 %36 to i32
  %38 = icmp sgt i32 %30, %37
  br i1 %38, label %39, label %40

39:                                               ; preds = %23
  store i32 -1, ptr %3, align 4
  br label %58

40:                                               ; preds = %23
  %41 = load ptr, ptr %4, align 8
  %42 = getelementptr inbounds nuw %"struct.llvm::AsmRewrite", ptr %41, i32 0, i32 0
  %43 = load i32, ptr %42, align 8
  %44 = zext i32 %43 to i64
  %45 = getelementptr inbounds [11 x i8], ptr @_ZN4llvmL20AsmRewritePrecedenceE, i64 0, i64 %44
  %46 = load i8, ptr %45, align 1
  %47 = sext i8 %46 to i32
  %48 = load ptr, ptr %5, align 8
  %49 = getelementptr inbounds nuw %"struct.llvm::AsmRewrite", ptr %48, i32 0, i32 0
  %50 = load i32, ptr %49, align 8
  %51 = zext i32 %50 to i64
  %52 = getelementptr inbounds [11 x i8], ptr @_ZN4llvmL20AsmRewritePrecedenceE, i64 0, i64 %51
  %53 = load i8, ptr %52, align 1
  %54 = sext i8 %53 to i32
  %55 = icmp slt i32 %47, %54
  br i1 %55, label %56, label %57

56:                                               ; preds = %40
  store i32 1, ptr %3, align 4
  br label %58

57:                                               ; preds = %40
  unreachable

58:                                               ; preds = %56, %39, %22, %13
  %59 = load i32, ptr %3, align 4
  ret i32 %59
}