; Function Attrs: mustprogress nofree norecurse nosync nounwind willreturn memory(argmem: read) uwtable
define internal noundef range(i32 -1, 2) i32 @_ZL12rewritesSortPKN4llvm10AsmRewriteES2_(ptr noundef readonly captures(none) %0, ptr noundef readonly captures(none) %1) #5 {
  %3 = getelementptr inbounds nuw i8, ptr %0, i64 8
  %4 = load ptr, ptr %3, align 8
  %5 = getelementptr inbounds nuw i8, ptr %1, i64 8
  %6 = load ptr, ptr %5, align 8
  %7 = icmp ult ptr %4, %6
  br i1 %7, label %20, label %8

8:                                                ; preds = %2
  %9 = icmp ult ptr %6, %4
  br i1 %9, label %20, label %10

10:                                               ; preds = %8
  %11 = load i32, ptr %0, align 8
  %12 = zext i32 %11 to i64
  %13 = getelementptr inbounds nuw [11 x i8], ptr @_ZN4llvmL20AsmRewritePrecedenceE, i64 0, i64 %12
  %14 = load i8, ptr %13, align 1
  %15 = load i32, ptr %1, align 8
  %16 = zext i32 %15 to i64
  %17 = getelementptr inbounds nuw [11 x i8], ptr @_ZN4llvmL20AsmRewritePrecedenceE, i64 0, i64 %16
  %18 = load i8, ptr %17, align 1
  %19 = icmp sgt i8 %14, %18
  %spec.select = select i1 %19, i32 -1, i32 1
  br label %20

20:                                               ; preds = %10, %8, %2
  %.0 = phi i32 [ -1, %2 ], [ 1, %8 ], [ %spec.select, %10 ]
  ret i32 %.0
}